; Function Attrs: nofree norecurse nosync nounwind memory(read, inaccessiblemem: none) uwtable
define noundef ptr @cli_htu32_find(ptr noundef readonly %0, i32 noundef %1) local_unnamed_addr #4 {
  %.not = icmp eq ptr %0, null
  br i1 %.not, label %.loopexit, label %3

3:                                                ; preds = %2
  %4 = getelementptr inbounds i8, ptr %0, i64 8
  %5 = load i64, ptr %4, align 8
  %6 = xor i32 %1, -1
  %7 = shl i32 %1, 15
  %8 = add i32 %7, %6
  %9 = lshr i32 %8, 12
  %10 = xor i32 %9, %8
  %11 = mul i32 %10, 5
  %12 = lshr i32 %11, 4
  %13 = xor i32 %12, %11
  %14 = mul i32 %13, 2057
  %15 = lshr i32 %14, 16
  %16 = xor i32 %15, %14
  %17 = zext i32 %16 to i64
  %18 = add i64 %5, 4294967295
  %19 = and i64 %18, %17
  %20 = load ptr, ptr %0, align 8
  %21 = add i64 %5, -1
  br label %22

22:                                               ; preds = %26, %3
  %.016 = phi i64 [ 1, %3 ], [ %27, %26 ]
  %.0 = phi i64 [ %19, %3 ], [ %29, %26 ]
  %.017 = getelementptr inbounds %struct.cli_htu32_element, ptr %20, i64 %.0
  %23 = load i32, ptr %.017, align 8
  %.not22 = icmp eq i32 %23, 0
  br i1 %.not22, label %.loopexit, label %24

24:                                               ; preds = %22
  %25 = icmp eq i32 %23, %1
  br i1 %25, label %.loopexit, label %26

26:                                               ; preds = %24
  %27 = add i64 %.016, 1
  %28 = add i64 %.0, %.016
  %29 = and i64 %28, %21
  %.not23 = icmp ugt i64 %27, %5
  br i1 %.not23, label %.loopexit, label %22

.loopexit:                                        ; preds = %26, %24, %22, %2
  %.018 = phi ptr [ null, %2 ], [ null, %26 ], [ %.017, %24 ], [ null, %22 ]
  ret ptr %.018
}